; Function Attrs: nofree norecurse nounwind memory(argmem: readwrite, inaccessiblemem: readwrite) uwtable
define dso_local void @LWLockInitialize(ptr noundef %0, i32 noundef %1) local_unnamed_addr #7 {
  %3 = getelementptr inbounds nuw i8, ptr %0, i64 4
  store volatile i32 536870912, ptr %3, align 4
  %4 = trunc i32 %1 to i16
  store i16 %4, ptr %0, align 4
  %5 = getelementptr inbounds nuw i8, ptr %0, i64 8
  %6 = getelementptr inbounds nuw i8, ptr %0, i64 12
  store i32 -1, ptr %6, align 4
  store i32 -1, ptr %5, align 4
  ret void
}